target datalayout = "e-m:e-p270:32:32-p271:32:32-p272:64:64-i64:64-i128:128-f80:128-n8:16:32:64-S128"
target triple = "x86_64-pc-linux-gnu"

%struct.rb_fdset_t = type { i32, ptr }
%struct.fd_set = type { [16 x i64] }

; Function Attrs: nounwind sspstrong willreturn memory(read) uwtable
define dso_local i32 @rb_fd_isset(i32 noundef %0, ptr noundef nonnull %1) #24 {
  %3 = alloca i32, align 4
  %4 = alloca i32, align 4
  %5 = alloca ptr, align 8
  store i32 %0, ptr %4, align 4, !tbaa !15
  store ptr %1, ptr %5, align 8, !tbaa !14
  %6 = load i32, ptr %4, align 4, !tbaa !15
  %7 = load ptr, ptr %5, align 8, !tbaa !14
  %8 = getelementptr inbounds nuw %struct.rb_fdset_t, ptr %7, i32 0, i32 0
  %9 = load i32, ptr %8, align 8, !tbaa !316
  %10 = icmp sge i32 %6, %9
  br i1 %10, label %11, label %12

11:                                               ; preds = %2
  store i32 0, ptr %3, align 4
  br label %31

12:                                               ; preds = %2
  %13 = load ptr, ptr %5, align 8, !tbaa !14
  %14 = getelementptr inbounds nuw %struct.rb_fdset_t, ptr %13, i32 0, i32 1
  %15 = load ptr, ptr %14, align 8, !tbaa !318
  %16 = getelementptr inbounds nuw %struct.fd_set, ptr %15, i32 0, i32 0
  %17 = load i32, ptr %4, align 4, !tbaa !15
  %18 = sdiv i32 %17, 64
  %19 = sext i32 %18 to i64
  %20 = getelementptr [16 x i64], ptr %16, i64 0, i64 %19
  %21 = load i64, ptr %20, align 8, !tbaa !22
  %22 = load i32, ptr %4, align 4, !tbaa !15
  %23 = srem i32 %22, 64
  %24 = zext i32 %23 to i64
  %25 = shl i64 1, %24
  %26 = and i64 %21, %25
  %27 = icmp ne i64 %26, 0
  %28 = zext i1 %27 to i32
  %29 = icmp ne i32 %28, 0
  %30 = zext i1 %29 to i32
  store i32 %30, ptr %3, align 4
  br label %31

31:                                               ; preds = %12, %11
  %32 = load i32, ptr %3, align 4
  ret i32 %32
}