; Function Attrs: mustprogress nofree norecurse nosync nounwind sspstrong willreturn memory(read, inaccessiblemem: none) uwtable
define dso_local range(i32 0, 2) i32 @rb_fd_isset(i32 noundef %0, ptr noundef nonnull readonly captures(none) %1) local_unnamed_addr #23 {
  %3 = load i32, ptr %1, align 8, !tbaa !302
  %.not = icmp slt i32 %0, %3
  br i1 %.not, label %4, label %16

4:                                                ; preds = %2
  %5 = getelementptr inbounds nuw i8, ptr %1, i64 8
  %6 = load ptr, ptr %5, align 8, !tbaa !304
  %7 = sdiv i32 %0, 64
  %8 = sext i32 %7 to i64
  %9 = getelementptr [16 x i64], ptr %6, i64 0, i64 %8
  %10 = load i64, ptr %9, align 8, !tbaa !145
  %11 = srem i32 %0, 64
  %12 = zext nneg i32 %11 to i64
  %13 = lshr i64 %10, %12
  %14 = trunc i64 %13 to i32
  %15 = and i32 %14, 1
  br label %16

16:                                               ; preds = %2, %4
  %.0 = phi i32 [ %15, %4 ], [ 0, %2 ]
  ret i32 %.0
}